target datalayout = "e-m:e-p270:32:32-p271:32:32-p272:64:64-i64:64-i128:128-f80:128-n8:16:32:64-S128"
target triple = "x86_64-pc-linux-gnu"

%struct.stbtt__active_edge = type { ptr, float, float, float, float, float, float }

; Function Attrs: nounwind uwtable
define void @stbtt__handle_clipped_edge(ptr noundef %0, i32 noundef %1, ptr noundef %2, float noundef %3, float noundef %4, float noundef %5, float noundef %6) #0 {
  %8 = alloca ptr, align 8
  %9 = alloca i32, align 4
  %10 = alloca ptr, align 8
  %11 = alloca float, align 4
  %12 = alloca float, align 4
  %13 = alloca float, align 4
  %14 = alloca float, align 4
  store ptr %0, ptr %8, align 8, !tbaa !133
  store i32 %1, ptr %9, align 4, !tbaa !14
  store ptr %2, ptr %10, align 8, !tbaa !117
  store float %3, ptr %11, align 4, !tbaa !67
  store float %4, ptr %12, align 4, !tbaa !67
  store float %5, ptr %13, align 4, !tbaa !67
  store float %6, ptr %14, align 4, !tbaa !67
  %15 = load float, ptr %12, align 4, !tbaa !67
  %16 = load float, ptr %14, align 4, !tbaa !67
  %17 = fcmp oeq float %15, %16
  br i1 %17, label %18, label %19

18:                                               ; preds = %7
  br label %175

19:                                               ; preds = %7
  %20 = load float, ptr %12, align 4, !tbaa !67
  %21 = load ptr, ptr %10, align 8, !tbaa !117
  %22 = getelementptr inbounds nuw %struct.stbtt__active_edge, ptr %21, i32 0, i32 6
  %23 = load float, ptr %22, align 4, !tbaa !131
  %24 = fcmp ogt float %20, %23
  br i1 %24, label %25, label %26

25:                                               ; preds = %19
  br label %175

26:                                               ; preds = %19
  %27 = load float, ptr %14, align 4, !tbaa !67
  %28 = load ptr, ptr %10, align 8, !tbaa !117
  %29 = getelementptr inbounds nuw %struct.stbtt__active_edge, ptr %28, i32 0, i32 5
  %30 = load float, ptr %29, align 8, !tbaa !130
  %31 = fcmp olt float %27, %30
  br i1 %31, label %32, label %33

32:                                               ; preds = %26
  br label %175

33:                                               ; preds = %26
  %34 = load float, ptr %12, align 4, !tbaa !67
  %35 = load ptr, ptr %10, align 8, !tbaa !117
  %36 = getelementptr inbounds nuw %struct.stbtt__active_edge, ptr %35, i32 0, i32 5
  %37 = load float, ptr %36, align 8, !tbaa !130
  %38 = fcmp olt float %34, %37
  br i1 %38, label %39, label %58

39:                                               ; preds = %33
  %40 = load float, ptr %13, align 4, !tbaa !67
  %41 = load float, ptr %11, align 4, !tbaa !67
  %42 = fsub float %40, %41
  %43 = load ptr, ptr %10, align 8, !tbaa !117
  %44 = getelementptr inbounds nuw %struct.stbtt__active_edge, ptr %43, i32 0, i32 5
  %45 = load float, ptr %44, align 8, !tbaa !130
  %46 = load float, ptr %12, align 4, !tbaa !67
  %47 = fsub float %45, %46
  %48 = fmul float %42, %47
  %49 = load float, ptr %14, align 4, !tbaa !67
  %50 = load float, ptr %12, align 4, !tbaa !67
  %51 = fsub float %49, %50
  %52 = fdiv float %48, %51
  %53 = load float, ptr %11, align 4, !tbaa !67
  %54 = fadd float %53, %52
  store float %54, ptr %11, align 4, !tbaa !67
  %55 = load ptr, ptr %10, align 8, !tbaa !117
  %56 = getelementptr inbounds nuw %struct.stbtt__active_edge, ptr %55, i32 0, i32 5
  %57 = load float, ptr %56, align 8, !tbaa !130
  store float %57, ptr %12, align 4, !tbaa !67
  br label %58

58:                                               ; preds = %39, %33
  %59 = load float, ptr %14, align 4, !tbaa !67
  %60 = load ptr, ptr %10, align 8, !tbaa !117
  %61 = getelementptr inbounds nuw %struct.stbtt__active_edge, ptr %60, i32 0, i32 6
  %62 = load float, ptr %61, align 4, !tbaa !131
  %63 = fcmp ogt float %59, %62
  br i1 %63, label %64, label %83

64:                                               ; preds = %58
  %65 = load float, ptr %13, align 4, !tbaa !67
  %66 = load float, ptr %11, align 4, !tbaa !67
  %67 = fsub float %65, %66
  %68 = load ptr, ptr %10, align 8, !tbaa !117
  %69 = getelementptr inbounds nuw %struct.stbtt__active_edge, ptr %68, i32 0, i32 6
  %70 = load float, ptr %69, align 4, !tbaa !131
  %71 = load float, ptr %14, align 4, !tbaa !67
  %72 = fsub float %70, %71
  %73 = fmul float %67, %72
  %74 = load float, ptr %14, align 4, !tbaa !67
  %75 = load float, ptr %12, align 4, !tbaa !67
  %76 = fsub float %74, %75
  %77 = fdiv float %73, %76
  %78 = load float, ptr %13, align 4, !tbaa !67
  %79 = fadd float %78, %77
  store float %79, ptr %13, align 4, !tbaa !67
  %80 = load ptr, ptr %10, align 8, !tbaa !117
  %81 = getelementptr inbounds nuw %struct.stbtt__active_edge, ptr %80, i32 0, i32 6
  %82 = load float, ptr %81, align 4, !tbaa !131
  store float %82, ptr %14, align 4, !tbaa !67
  br label %83

83:                                               ; preds = %64, %58
  %84 = load float, ptr %11, align 4, !tbaa !67
  %85 = load i32, ptr %9, align 4, !tbaa !14
  %86 = sitofp i32 %85 to float
  %87 = fcmp oeq float %84, %86
  br i1 %87, label %88, label %89

88:                                               ; preds = %83
  br label %113

89:                                               ; preds = %83
  %90 = load float, ptr %11, align 4, !tbaa !67
  %91 = load i32, ptr %9, align 4, !tbaa !14
  %92 = add nsw i32 %91, 1
  %93 = sitofp i32 %92 to float
  %94 = fcmp oeq float %90, %93
  br i1 %94, label %95, label %96

95:                                               ; preds = %89
  br label %112

96:                                               ; preds = %89
  %97 = load float, ptr %11, align 4, !tbaa !67
  %98 = load i32, ptr %9, align 4, !tbaa !14
  %99 = sitofp i32 %98 to float
  %100 = fcmp ole float %97, %99
  br i1 %100, label %101, label %102

101:                                              ; preds = %96
  br label %111

102:                                              ; preds = %96
  %103 = load float, ptr %11, align 4, !tbaa !67
  %104 = load i32, ptr %9, align 4, !tbaa !14
  %105 = add nsw i32 %104, 1
  %106 = sitofp i32 %105 to float
  %107 = fcmp oge float %103, %106
  br i1 %107, label %108, label %109

108:                                              ; preds = %102
  br label %110

109:                                              ; preds = %102
  br label %110

110:                                              ; preds = %109, %108
  br label %111

111:                                              ; preds = %110, %101
  br label %112

112:                                              ; preds = %111, %95
  br label %113

113:                                              ; preds = %112, %88
  %114 = load float, ptr %11, align 4, !tbaa !67
  %115 = load i32, ptr %9, align 4, !tbaa !14
  %116 = sitofp i32 %115 to float
  %117 = fcmp ole float %114, %116
  br i1 %117, label %118, label %136

118:                                              ; preds = %113
  %119 = load float, ptr %13, align 4, !tbaa !67
  %120 = load i32, ptr %9, align 4, !tbaa !14
  %121 = sitofp i32 %120 to float
  %122 = fcmp ole float %119, %121
  br i1 %122, label %123, label %136

123:                                              ; preds = %118
  %124 = load ptr, ptr %10, align 8, !tbaa !117
  %125 = getelementptr inbounds nuw %struct.stbtt__active_edge, ptr %124, i32 0, i32 4
  %126 = load float, ptr %125, align 4, !tbaa !129
  %127 = load float, ptr %14, align 4, !tbaa !67
  %128 = load float, ptr %12, align 4, !tbaa !67
  %129 = fsub float %127, %128
  %130 = load ptr, ptr %8, align 8, !tbaa !133
  %131 = load i32, ptr %9, align 4, !tbaa !14
  %132 = sext i32 %131 to i64
  %133 = getelementptr inbounds float, ptr %130, i64 %132
  %134 = load float, ptr %133, align 4, !tbaa !67
  %135 = call float @llvm.fmuladd.f32(float %126, float %129, float %134)
  store float %135, ptr %133, align 4, !tbaa !67
  br label %175

136:                                              ; preds = %118, %113
  %137 = load float, ptr %11, align 4, !tbaa !67
  %138 = load i32, ptr %9, align 4, !tbaa !14
  %139 = add nsw i32 %138, 1
  %140 = sitofp i32 %139 to float
  %141 = fcmp oge float %137, %140
  br i1 %141, label %142, label %149

142:                                              ; preds = %136
  %143 = load float, ptr %13, align 4, !tbaa !67
  %144 = load i32, ptr %9, align 4, !tbaa !14
  %145 = add nsw i32 %144, 1
  %146 = sitofp i32 %145 to float
  %147 = fcmp oge float %143, %146
  br i1 %147, label %148, label %149

148:                                              ; preds = %142
  br label %174

149:                                              ; preds = %142, %136
  %150 = load ptr, ptr %10, align 8, !tbaa !117
  %151 = getelementptr inbounds nuw %struct.stbtt__active_edge, ptr %150, i32 0, i32 4
  %152 = load float, ptr %151, align 4, !tbaa !129
  %153 = load float, ptr %14, align 4, !tbaa !67
  %154 = load float, ptr %12, align 4, !tbaa !67
  %155 = fsub float %153, %154
  %156 = fmul float %152, %155
  %157 = load float, ptr %11, align 4, !tbaa !67
  %158 = load i32, ptr %9, align 4, !tbaa !14
  %159 = sitofp i32 %158 to float
  %160 = fsub float %157, %159
  %161 = load float, ptr %13, align 4, !tbaa !67
  %162 = load i32, ptr %9, align 4, !tbaa !14
  %163 = sitofp i32 %162 to float
  %164 = fsub float %161, %163
  %165 = fadd float %160, %164
  %166 = fdiv float %165, 2.000000e+00
  %167 = fsub float 1.000000e+00, %166
  %168 = load ptr, ptr %8, align 8, !tbaa !133
  %169 = load i32, ptr %9, align 4, !tbaa !14
  %170 = sext i32 %169 to i64
  %171 = getelementptr inbounds float, ptr %168, i64 %170
  %172 = load float, ptr %171, align 4, !tbaa !67
  %173 = call float @llvm.fmuladd.f32(float %156, float %167, float %172)
  store float %173, ptr %171, align 4, !tbaa !67
  br label %174

174:                                              ; preds = %149, %148
  br label %175

175:                                              ; preds = %18, %25, %32, %174, %123
  ret void
}