; Function Attrs: mustprogress nofree norecurse nosync nounwind willreturn memory(argmem: readwrite) uwtable
define void @stbtt__handle_clipped_edge(ptr noundef captures(none) %0, i32 noundef %1, ptr noundef readonly captures(none) %2, float noundef %3, float noundef %4, float noundef %5, float noundef %6) local_unnamed_addr #2 {
  %8 = fcmp oeq float %4, %6
  br i1 %8, label %66, label %9

9:                                                ; preds = %7
  %10 = getelementptr inbounds nuw i8, ptr %2, i64 28
  %11 = load float, ptr %10, align 4, !tbaa !113
  %12 = fcmp ogt float %4, %11
  br i1 %12, label %66, label %13

13:                                               ; preds = %9
  %14 = getelementptr inbounds nuw i8, ptr %2, i64 24
  %15 = load float, ptr %14, align 8, !tbaa !112
  %16 = fcmp olt float %6, %15
  br i1 %16, label %66, label %17

17:                                               ; preds = %13
  %18 = fcmp olt float %4, %15
  br i1 %18, label %19, label %26

19:                                               ; preds = %17
  %20 = fsub float %5, %3
  %21 = fsub float %15, %4
  %22 = fmul float %20, %21
  %23 = fsub float %6, %4
  %24 = fdiv float %22, %23
  %25 = fadd float %3, %24
  br label %26

26:                                               ; preds = %19, %17
  %.055 = phi float [ %25, %19 ], [ %3, %17 ]
  %.054 = phi float [ %15, %19 ], [ %4, %17 ]
  %27 = fcmp ogt float %6, %11
  br i1 %27, label %28, label %35

28:                                               ; preds = %26
  %29 = fsub float %5, %.055
  %30 = fsub float %11, %6
  %31 = fmul float %30, %29
  %32 = fsub float %6, %.054
  %33 = fdiv float %31, %32
  %34 = fadd float %5, %33
  br label %35

35:                                               ; preds = %28, %26
  %.053 = phi float [ %34, %28 ], [ %5, %26 ]
  %.0 = phi float [ %11, %28 ], [ %6, %26 ]
  %36 = sitofp i32 %1 to float
  %37 = fcmp ugt float %.055, %36
  %38 = fcmp ugt float %.053, %36
  %or.cond = select i1 %37, i1 true, i1 %38
  br i1 %or.cond, label %47, label %39

39:                                               ; preds = %35
  %40 = getelementptr inbounds nuw i8, ptr %2, i64 20
  %41 = load float, ptr %40, align 4, !tbaa !111
  %42 = fsub float %.0, %.054
  %43 = sext i32 %1 to i64
  %44 = getelementptr inbounds float, ptr %0, i64 %43
  %45 = load float, ptr %44, align 4, !tbaa !71
  %46 = tail call float @llvm.fmuladd.f32(float %41, float %42, float %45)
  store float %46, ptr %44, align 4, !tbaa !71
  br label %66

47:                                               ; preds = %35
  %48 = add nsw i32 %1, 1
  %49 = sitofp i32 %48 to float
  %50 = fcmp ult float %.055, %49
  %51 = fcmp ult float %.053, %49
  %or.cond62 = select i1 %50, i1 true, i1 %51
  br i1 %or.cond62, label %52, label %66

52:                                               ; preds = %47
  %53 = getelementptr inbounds nuw i8, ptr %2, i64 20
  %54 = load float, ptr %53, align 4, !tbaa !111
  %55 = fsub float %.0, %.054
  %56 = fmul float %55, %54
  %57 = fsub float %.055, %36
  %58 = fsub float %.053, %36
  %59 = fadd float %57, %58
  %60 = fmul float %59, 5.000000e-01
  %61 = fsub float 1.000000e+00, %60
  %62 = sext i32 %1 to i64
  %63 = getelementptr inbounds float, ptr %0, i64 %62
  %64 = load float, ptr %63, align 4, !tbaa !71
  %65 = tail call float @llvm.fmuladd.f32(float %56, float %61, float %64)
  store float %65, ptr %63, align 4, !tbaa !71
  br label %66

66:                                               ; preds = %47, %52, %13, %9, %7, %39
  ret void
}